; Function Attrs: mustprogress nofree norecurse nosync nounwind willreturn memory(argmem: write) uwtable
define dso_local noundef ptr @decNumberZero(ptr noundef returned writeonly captures(ret: address, provenance) initializes((0, 9), (10, 12)) %0) local_unnamed_addr #2 {
  %2 = getelementptr inbounds nuw i8, ptr %0, i64 8
  store i8 0, ptr %2, align 4, !tbaa !4
  %3 = getelementptr inbounds nuw i8, ptr %0, i64 4
  store i32 0, ptr %3, align 4, !tbaa !9
  store i32 1, ptr %0, align 4, !tbaa !10
  %4 = getelementptr inbounds nuw i8, ptr %0, i64 10
  store i16 0, ptr %4, align 2, !tbaa !11
  ret ptr %0
}